target datalayout = "e-m:e-p270:32:32-p271:32:32-p272:64:64-i64:64-i128:128-f80:128-n8:16:32:64-S128"
target triple = "x86_64-pc-linux-gnu"

%struct.jpeg_decompress_struct = type { ptr, ptr, ptr, ptr, i32, i32, ptr, i32, i32, i32, i32, i32, i32, i32, double, i32, i32, i32, i32, i32, i32, i32, i32, i32, i32, i32, i32, i32, i32, i32, i32, i32, i32, ptr, i32, i32, i32, i32, i32, ptr, [4 x ptr], [4 x ptr], [4 x ptr], i32, ptr, i32, i32, [16 x i8], [16 x i8], [16 x i8], i32, i32, i8, i8, i8, i16, i16, i32, i8, i32, ptr, i32, i32, i32, i32, ptr, i32, [4 x ptr], i32, i32, i32, [10 x i32], i32, i32, i32, i32, i32, ptr, ptr, ptr, ptr, ptr, ptr, ptr, ptr, ptr, ptr, ptr }
%struct.jpeg_memory_mgr = type { ptr, ptr, ptr, ptr, ptr, ptr, ptr, ptr, ptr, ptr, ptr, i64, i64 }
%struct.my_coef_controller = type { %struct.jpeg_d_coef_controller, i32, i32, i32, [10 x ptr], ptr, [10 x ptr], ptr }
%struct.jpeg_d_coef_controller = type { ptr, ptr, ptr, ptr, ptr, ptr, i32, i32, i32, ptr }
%struct.jpeg_component_info = type { i32, i32, i32, i32, i32, i32, i32, i32, i32, i32, i32, i32, i32, i32, i32, i32, i32, i32, i32, ptr, ptr }
%struct.jpeg_decomp_master = type { ptr, ptr, i32, i32, i32, i32, [10 x i32], [10 x i32], i32, i32, ptr }
%struct.jpeg_input_controller = type { ptr, ptr, ptr, ptr, i32, i32 }
%struct.jpeg_inverse_dct = type { ptr, [10 x ptr], [10 x ptr] }

; Function Attrs: nounwind uwtable
define internal i32 @decompress_data(ptr noundef %0, ptr noundef %1) #0 {
  %3 = alloca i32, align 4
  %4 = alloca ptr, align 8
  %5 = alloca ptr, align 8
  %6 = alloca ptr, align 8
  %7 = alloca i32, align 4
  %8 = alloca i32, align 4
  %9 = alloca i32, align 4
  %10 = alloca i32, align 4
  %11 = alloca i32, align 4
  %12 = alloca ptr, align 8
  %13 = alloca ptr, align 8
  %14 = alloca ptr, align 8
  %15 = alloca i32, align 4
  %16 = alloca ptr, align 8
  %17 = alloca ptr, align 8
  %18 = alloca i32, align 4
  store ptr %0, ptr %4, align 8, !tbaa !3
  store ptr %1, ptr %5, align 8, !tbaa !102
  call void @llvm.lifetime.start.p0(i64 8, ptr %6) #4
  %19 = load ptr, ptr %4, align 8, !tbaa !3
  %20 = getelementptr inbounds nuw %struct.jpeg_decompress_struct, ptr %19, i32 0, i32 79
  %21 = load ptr, ptr %20, align 8, !tbaa !43
  store ptr %21, ptr %6, align 8, !tbaa !42
  call void @llvm.lifetime.start.p0(i64 4, ptr %7) #4
  %22 = load ptr, ptr %4, align 8, !tbaa !3
  %23 = getelementptr inbounds nuw %struct.jpeg_decompress_struct, ptr %22, i32 0, i32 64
  %24 = load i32, ptr %23, align 4, !tbaa !98
  %25 = sub i32 %24, 1
  store i32 %25, ptr %7, align 4, !tbaa !8
  call void @llvm.lifetime.start.p0(i64 4, ptr %8) #4
  call void @llvm.lifetime.start.p0(i64 4, ptr %9) #4
  call void @llvm.lifetime.start.p0(i64 4, ptr %10) #4
  call void @llvm.lifetime.start.p0(i64 4, ptr %11) #4
  call void @llvm.lifetime.start.p0(i64 8, ptr %12) #4
  call void @llvm.lifetime.start.p0(i64 8, ptr %13) #4
  call void @llvm.lifetime.start.p0(i64 8, ptr %14) #4
  call void @llvm.lifetime.start.p0(i64 4, ptr %15) #4
  call void @llvm.lifetime.start.p0(i64 8, ptr %16) #4
  call void @llvm.lifetime.start.p0(i64 8, ptr %17) #4
  br label %26

26:                                               ; preds = %64, %2
  %27 = load ptr, ptr %4, align 8, !tbaa !3
  %28 = getelementptr inbounds nuw %struct.jpeg_decompress_struct, ptr %27, i32 0, i32 35
  %29 = load i32, ptr %28, align 4, !tbaa !104
  %30 = load ptr, ptr %4, align 8, !tbaa !3
  %31 = getelementptr inbounds nuw %struct.jpeg_decompress_struct, ptr %30, i32 0, i32 37
  %32 = load i32, ptr %31, align 4, !tbaa !105
  %33 = icmp slt i32 %29, %32
  br i1 %33, label %52, label %34

34:                                               ; preds = %26
  %35 = load ptr, ptr %4, align 8, !tbaa !3
  %36 = getelementptr inbounds nuw %struct.jpeg_decompress_struct, ptr %35, i32 0, i32 35
  %37 = load i32, ptr %36, align 4, !tbaa !104
  %38 = load ptr, ptr %4, align 8, !tbaa !3
  %39 = getelementptr inbounds nuw %struct.jpeg_decompress_struct, ptr %38, i32 0, i32 37
  %40 = load i32, ptr %39, align 4, !tbaa !105
  %41 = icmp eq i32 %37, %40
  br i1 %41, label %42, label %50

42:                                               ; preds = %34
  %43 = load ptr, ptr %4, align 8, !tbaa !3
  %44 = getelementptr inbounds nuw %struct.jpeg_decompress_struct, ptr %43, i32 0, i32 36
  %45 = load i32, ptr %44, align 8, !tbaa !71
  %46 = load ptr, ptr %4, align 8, !tbaa !3
  %47 = getelementptr inbounds nuw %struct.jpeg_decompress_struct, ptr %46, i32 0, i32 38
  %48 = load i32, ptr %47, align 8, !tbaa !73
  %49 = icmp ule i32 %45, %48
  br label %50

50:                                               ; preds = %42, %34
  %51 = phi i1 [ false, %34 ], [ %49, %42 ]
  br label %52

52:                                               ; preds = %50, %26
  %53 = phi i1 [ true, %26 ], [ %51, %50 ]
  br i1 %53, label %54, label %65

54:                                               ; preds = %52
  %55 = load ptr, ptr %4, align 8, !tbaa !3
  %56 = getelementptr inbounds nuw %struct.jpeg_decompress_struct, ptr %55, i32 0, i32 81
  %57 = load ptr, ptr %56, align 8, !tbaa !99
  %58 = getelementptr inbounds nuw %struct.jpeg_input_controller, ptr %57, i32 0, i32 0
  %59 = load ptr, ptr %58, align 8, !tbaa !106
  %60 = load ptr, ptr %4, align 8, !tbaa !3
  %61 = call i32 %59(ptr noundef %60)
  %62 = icmp eq i32 %61, 0
  br i1 %62, label %63, label %64

63:                                               ; preds = %54
  store i32 0, ptr %3, align 4
  store i32 1, ptr %18, align 4
  br label %226

64:                                               ; preds = %54
  br label %26, !llvm.loop !107

65:                                               ; preds = %52
  store i32 0, ptr %9, align 4, !tbaa !8
  %66 = load ptr, ptr %4, align 8, !tbaa !3
  %67 = getelementptr inbounds nuw %struct.jpeg_decompress_struct, ptr %66, i32 0, i32 44
  %68 = load ptr, ptr %67, align 8, !tbaa !51
  store ptr %68, ptr %16, align 8, !tbaa !42
  br label %69

69:                                               ; preds = %210, %65
  %70 = load i32, ptr %9, align 4, !tbaa !8
  %71 = load ptr, ptr %4, align 8, !tbaa !3
  %72 = getelementptr inbounds nuw %struct.jpeg_decompress_struct, ptr %71, i32 0, i32 9
  %73 = load i32, ptr %72, align 8, !tbaa !52
  %74 = icmp slt i32 %70, %73
  br i1 %74, label %75, label %215

75:                                               ; preds = %69
  %76 = load ptr, ptr %16, align 8, !tbaa !42
  %77 = getelementptr inbounds nuw %struct.jpeg_component_info, ptr %76, i32 0, i32 12
  %78 = load i32, ptr %77, align 8, !tbaa !108
  %79 = icmp ne i32 %78, 0
  br i1 %79, label %81, label %80

80:                                               ; preds = %75
  br label %210

81:                                               ; preds = %75
  %82 = load ptr, ptr %4, align 8, !tbaa !3
  %83 = getelementptr inbounds nuw %struct.jpeg_decompress_struct, ptr %82, i32 0, i32 1
  %84 = load ptr, ptr %83, align 8, !tbaa !39
  %85 = getelementptr inbounds nuw %struct.jpeg_memory_mgr, ptr %84, i32 0, i32 8
  %86 = load ptr, ptr %85, align 8, !tbaa !75
  %87 = load ptr, ptr %4, align 8, !tbaa !3
  %88 = load ptr, ptr %6, align 8, !tbaa !42
  %89 = getelementptr inbounds nuw %struct.my_coef_controller, ptr %88, i32 0, i32 6
  %90 = load i32, ptr %9, align 4, !tbaa !8
  %91 = sext i32 %90 to i64
  %92 = getelementptr inbounds [10 x ptr], ptr %89, i64 0, i64 %91
  %93 = load ptr, ptr %92, align 8, !tbaa !60
  %94 = load ptr, ptr %4, align 8, !tbaa !3
  %95 = getelementptr inbounds nuw %struct.jpeg_decompress_struct, ptr %94, i32 0, i32 38
  %96 = load i32, ptr %95, align 8, !tbaa !73
  %97 = load ptr, ptr %16, align 8, !tbaa !42
  %98 = getelementptr inbounds nuw %struct.jpeg_component_info, ptr %97, i32 0, i32 3
  %99 = load i32, ptr %98, align 4, !tbaa !53
  %100 = mul i32 %96, %99
  %101 = load ptr, ptr %16, align 8, !tbaa !42
  %102 = getelementptr inbounds nuw %struct.jpeg_component_info, ptr %101, i32 0, i32 3
  %103 = load i32, ptr %102, align 4, !tbaa !53
  %104 = call ptr %86(ptr noundef %87, ptr noundef %93, i32 noundef %100, i32 noundef %103, i32 noundef 0)
  store ptr %104, ptr %12, align 8, !tbaa !77
  %105 = load ptr, ptr %4, align 8, !tbaa !3
  %106 = getelementptr inbounds nuw %struct.jpeg_decompress_struct, ptr %105, i32 0, i32 38
  %107 = load i32, ptr %106, align 8, !tbaa !73
  %108 = load i32, ptr %7, align 4, !tbaa !8
  %109 = icmp ult i32 %107, %108
  br i1 %109, label %110, label %114

110:                                              ; preds = %81
  %111 = load ptr, ptr %16, align 8, !tbaa !42
  %112 = getelementptr inbounds nuw %struct.jpeg_component_info, ptr %111, i32 0, i32 3
  %113 = load i32, ptr %112, align 4, !tbaa !53
  store i32 %113, ptr %11, align 4, !tbaa !8
  br label %129

114:                                              ; preds = %81
  %115 = load ptr, ptr %16, align 8, !tbaa !42
  %116 = getelementptr inbounds nuw %struct.jpeg_component_info, ptr %115, i32 0, i32 8
  %117 = load i32, ptr %116, align 8, !tbaa !59
  %118 = load ptr, ptr %16, align 8, !tbaa !42
  %119 = getelementptr inbounds nuw %struct.jpeg_component_info, ptr %118, i32 0, i32 3
  %120 = load i32, ptr %119, align 4, !tbaa !53
  %121 = urem i32 %117, %120
  store i32 %121, ptr %11, align 4, !tbaa !8
  %122 = load i32, ptr %11, align 4, !tbaa !8
  %123 = icmp eq i32 %122, 0
  br i1 %123, label %124, label %128

124:                                              ; preds = %114
  %125 = load ptr, ptr %16, align 8, !tbaa !42
  %126 = getelementptr inbounds nuw %struct.jpeg_component_info, ptr %125, i32 0, i32 3
  %127 = load i32, ptr %126, align 4, !tbaa !53
  store i32 %127, ptr %11, align 4, !tbaa !8
  br label %128

128:                                              ; preds = %124, %114
  br label %129

129:                                              ; preds = %128, %110
  %130 = load ptr, ptr %4, align 8, !tbaa !3
  %131 = getelementptr inbounds nuw %struct.jpeg_decompress_struct, ptr %130, i32 0, i32 84
  %132 = load ptr, ptr %131, align 8, !tbaa !109
  %133 = getelementptr inbounds nuw %struct.jpeg_inverse_dct, ptr %132, i32 0, i32 1
  %134 = load i32, ptr %9, align 4, !tbaa !8
  %135 = sext i32 %134 to i64
  %136 = getelementptr inbounds [10 x ptr], ptr %133, i64 0, i64 %135
  %137 = load ptr, ptr %136, align 8, !tbaa !42
  store ptr %137, ptr %17, align 8, !tbaa !42
  %138 = load ptr, ptr %5, align 8, !tbaa !102
  %139 = load i32, ptr %9, align 4, !tbaa !8
  %140 = sext i32 %139 to i64
  %141 = getelementptr inbounds ptr, ptr %138, i64 %140
  %142 = load ptr, ptr %141, align 8, !tbaa !110
  store ptr %142, ptr %14, align 8, !tbaa !110
  store i32 0, ptr %10, align 4, !tbaa !8
  br label %143

143:                                              ; preds = %206, %129
  %144 = load i32, ptr %10, align 4, !tbaa !8
  %145 = load i32, ptr %11, align 4, !tbaa !8
  %146 = icmp slt i32 %144, %145
  br i1 %146, label %147, label %209

147:                                              ; preds = %143
  %148 = load ptr, ptr %12, align 8, !tbaa !77
  %149 = load i32, ptr %10, align 4, !tbaa !8
  %150 = sext i32 %149 to i64
  %151 = getelementptr inbounds ptr, ptr %148, i64 %150
  %152 = load ptr, ptr %151, align 8, !tbaa !68
  %153 = load ptr, ptr %4, align 8, !tbaa !3
  %154 = getelementptr inbounds nuw %struct.jpeg_decompress_struct, ptr %153, i32 0, i32 77
  %155 = load ptr, ptr %154, align 8, !tbaa !92
  %156 = getelementptr inbounds nuw %struct.jpeg_decomp_master, ptr %155, i32 0, i32 6
  %157 = load i32, ptr %9, align 4, !tbaa !8
  %158 = sext i32 %157 to i64
  %159 = getelementptr inbounds [10 x i32], ptr %156, i64 0, i64 %158
  %160 = load i32, ptr %159, align 4, !tbaa !8
  %161 = zext i32 %160 to i64
  %162 = getelementptr inbounds nuw [64 x i16], ptr %152, i64 %161
  store ptr %162, ptr %13, align 8, !tbaa !68
  store i32 0, ptr %15, align 4, !tbaa !8
  %163 = load ptr, ptr %4, align 8, !tbaa !3
  %164 = getelementptr inbounds nuw %struct.jpeg_decompress_struct, ptr %163, i32 0, i32 77
  %165 = load ptr, ptr %164, align 8, !tbaa !92
  %166 = getelementptr inbounds nuw %struct.jpeg_decomp_master, ptr %165, i32 0, i32 6
  %167 = load i32, ptr %9, align 4, !tbaa !8
  %168 = sext i32 %167 to i64
  %169 = getelementptr inbounds [10 x i32], ptr %166, i64 0, i64 %168
  %170 = load i32, ptr %169, align 4, !tbaa !8
  store i32 %170, ptr %8, align 4, !tbaa !8
  br label %171

171:                                              ; preds = %196, %147
  %172 = load i32, ptr %8, align 4, !tbaa !8
  %173 = load ptr, ptr %4, align 8, !tbaa !3
  %174 = getelementptr inbounds nuw %struct.jpeg_decompress_struct, ptr %173, i32 0, i32 77
  %175 = load ptr, ptr %174, align 8, !tbaa !92
  %176 = getelementptr inbounds nuw %struct.jpeg_decomp_master, ptr %175, i32 0, i32 7
  %177 = load i32, ptr %9, align 4, !tbaa !8
  %178 = sext i32 %177 to i64
  %179 = getelementptr inbounds [10 x i32], ptr %176, i64 0, i64 %178
  %180 = load i32, ptr %179, align 4, !tbaa !8
  %181 = icmp ule i32 %172, %180
  br i1 %181, label %182, label %199

182:                                              ; preds = %171
  %183 = load ptr, ptr %17, align 8, !tbaa !42
  %184 = load ptr, ptr %4, align 8, !tbaa !3
  %185 = load ptr, ptr %16, align 8, !tbaa !42
  %186 = load ptr, ptr %13, align 8, !tbaa !68
  %187 = load ptr, ptr %14, align 8, !tbaa !110
  %188 = load i32, ptr %15, align 4, !tbaa !8
  call void %183(ptr noundef %184, ptr noundef %185, ptr noundef %186, ptr noundef %187, i32 noundef %188)
  %189 = load ptr, ptr %13, align 8, !tbaa !68
  %190 = getelementptr inbounds nuw [64 x i16], ptr %189, i32 1
  store ptr %190, ptr %13, align 8, !tbaa !68
  %191 = load ptr, ptr %16, align 8, !tbaa !42
  %192 = getelementptr inbounds nuw %struct.jpeg_component_info, ptr %191, i32 0, i32 9
  %193 = load i32, ptr %192, align 4, !tbaa !111
  %194 = load i32, ptr %15, align 4, !tbaa !8
  %195 = add i32 %194, %193
  store i32 %195, ptr %15, align 4, !tbaa !8
  br label %196

196:                                              ; preds = %182
  %197 = load i32, ptr %8, align 4, !tbaa !8
  %198 = add i32 %197, 1
  store i32 %198, ptr %8, align 4, !tbaa !8
  br label %171, !llvm.loop !112

199:                                              ; preds = %171
  %200 = load ptr, ptr %16, align 8, !tbaa !42
  %201 = getelementptr inbounds nuw %struct.jpeg_component_info, ptr %200, i32 0, i32 9
  %202 = load i32, ptr %201, align 4, !tbaa !111
  %203 = load ptr, ptr %14, align 8, !tbaa !110
  %204 = sext i32 %202 to i64
  %205 = getelementptr inbounds ptr, ptr %203, i64 %204
  store ptr %205, ptr %14, align 8, !tbaa !110
  br label %206

206:                                              ; preds = %199
  %207 = load i32, ptr %10, align 4, !tbaa !8
  %208 = add nsw i32 %207, 1
  store i32 %208, ptr %10, align 4, !tbaa !8
  br label %143, !llvm.loop !113

209:                                              ; preds = %143
  br label %210

210:                                              ; preds = %209, %80
  %211 = load i32, ptr %9, align 4, !tbaa !8
  %212 = add nsw i32 %211, 1
  store i32 %212, ptr %9, align 4, !tbaa !8
  %213 = load ptr, ptr %16, align 8, !tbaa !42
  %214 = getelementptr inbounds nuw %struct.jpeg_component_info, ptr %213, i32 1
  store ptr %214, ptr %16, align 8, !tbaa !42
  br label %69, !llvm.loop !114

215:                                              ; preds = %69
  %216 = load ptr, ptr %4, align 8, !tbaa !3
  %217 = getelementptr inbounds nuw %struct.jpeg_decompress_struct, ptr %216, i32 0, i32 38
  %218 = load i32, ptr %217, align 8, !tbaa !73
  %219 = add i32 %218, 1
  store i32 %219, ptr %217, align 8, !tbaa !73
  %220 = load ptr, ptr %4, align 8, !tbaa !3
  %221 = getelementptr inbounds nuw %struct.jpeg_decompress_struct, ptr %220, i32 0, i32 64
  %222 = load i32, ptr %221, align 4, !tbaa !98
  %223 = icmp ult i32 %219, %222
  br i1 %223, label %224, label %225

224:                                              ; preds = %215
  store i32 3, ptr %3, align 4
  store i32 1, ptr %18, align 4
  br label %226

225:                                              ; preds = %215
  store i32 4, ptr %3, align 4
  store i32 1, ptr %18, align 4
  br label %226

226:                                              ; preds = %225, %224, %63
  call void @llvm.lifetime.end.p0(i64 8, ptr %17) #4
  call void @llvm.lifetime.end.p0(i64 8, ptr %16) #4
  call void @llvm.lifetime.end.p0(i64 4, ptr %15) #4
  call void @llvm.lifetime.end.p0(i64 8, ptr %14) #4
  call void @llvm.lifetime.end.p0(i64 8, ptr %13) #4
  call void @llvm.lifetime.end.p0(i64 8, ptr %12) #4
  call void @llvm.lifetime.end.p0(i64 4, ptr %11) #4
  call void @llvm.lifetime.end.p0(i64 4, ptr %10) #4
  call void @llvm.lifetime.end.p0(i64 4, ptr %9) #4
  call void @llvm.lifetime.end.p0(i64 4, ptr %8) #4
  call void @llvm.lifetime.end.p0(i64 4, ptr %7) #4
  call void @llvm.lifetime.end.p0(i64 8, ptr %6) #4
  %227 = load i32, ptr %3, align 4
  ret i32 %227
}