; Function Attrs: nounwind uwtable
define internal range(i32 0, 5) i32 @decompress_data(ptr noundef %0, ptr noundef readonly captures(none) %1) #0 {
  %3 = getelementptr inbounds nuw i8, ptr %0, i64 560
  %4 = load ptr, ptr %3, align 8, !tbaa !39
  %5 = getelementptr inbounds nuw i8, ptr %0, i64 420
  %6 = load i32, ptr %5, align 4, !tbaa !70
  %7 = add i32 %6, -1
  %8 = getelementptr inbounds nuw i8, ptr %0, i64 172
  %9 = getelementptr inbounds nuw i8, ptr %0, i64 180
  %10 = getelementptr inbounds nuw i8, ptr %0, i64 176
  %11 = getelementptr inbounds nuw i8, ptr %0, i64 184
  %12 = getelementptr inbounds nuw i8, ptr %0, i64 576
  br label %13

13:                                               ; preds = %.critedge, %2
  %14 = load i32, ptr %8, align 4, !tbaa !80
  %15 = load i32, ptr %9, align 4, !tbaa !107
  %16 = icmp slt i32 %14, %15
  br i1 %16, label %.critedge, label %17

17:                                               ; preds = %13
  %18 = icmp eq i32 %14, %15
  br i1 %18, label %19, label %.critedge2

19:                                               ; preds = %17
  %20 = load i32, ptr %10, align 8, !tbaa !67
  %21 = load i32, ptr %11, align 8, !tbaa !83
  %.not = icmp ugt i32 %20, %21
  br i1 %.not, label %.critedge2, label %.critedge

.critedge:                                        ; preds = %13, %19
  %22 = load ptr, ptr %12, align 8, !tbaa !104
  %23 = load ptr, ptr %22, align 8, !tbaa !108
  %24 = tail call i32 %23(ptr noundef nonnull %0) #6
  %25 = icmp eq i32 %24, 0
  br i1 %25, label %.loopexit75, label %13, !llvm.loop !109

.critedge2:                                       ; preds = %17, %19
  %26 = getelementptr inbounds nuw i8, ptr %0, i64 56
  %27 = load i32, ptr %26, align 8, !tbaa !47
  %28 = icmp sgt i32 %27, 0
  br i1 %28, label %.lr.ph87, label %._crit_edge88

.lr.ph87:                                         ; preds = %.critedge2
  %29 = getelementptr inbounds nuw i8, ptr %0, i64 304
  %30 = load ptr, ptr %29, align 8, !tbaa !48
  %31 = getelementptr inbounds nuw i8, ptr %0, i64 8
  %32 = getelementptr inbounds nuw i8, ptr %4, i64 176
  %33 = getelementptr inbounds nuw i8, ptr %0, i64 600
  %34 = getelementptr inbounds nuw i8, ptr %0, i64 544
  br label %35

35:                                               ; preds = %.lr.ph87, %.loopexit
  %indvars.iv91 = phi i64 [ 0, %.lr.ph87 ], [ %indvars.iv.next92, %.loopexit ]
  %.06285 = phi ptr [ %30, %.lr.ph87 ], [ %99, %.loopexit ]
  %36 = getelementptr inbounds nuw i8, ptr %.06285, i64 48
  %37 = load i32, ptr %36, align 8, !tbaa !110
  %.not73 = icmp eq i32 %37, 0
  br i1 %.not73, label %.loopexit, label %38

38:                                               ; preds = %35
  %39 = load ptr, ptr %31, align 8, !tbaa !36
  %40 = getelementptr inbounds nuw i8, ptr %39, i64 64
  %41 = load ptr, ptr %40, align 8, !tbaa !84
  %42 = getelementptr inbounds nuw [10 x ptr], ptr %32, i64 0, i64 %indvars.iv91
  %43 = load ptr, ptr %42, align 8, !tbaa !56
  %44 = load i32, ptr %11, align 8, !tbaa !83
  %45 = getelementptr inbounds nuw i8, ptr %.06285, i64 12
  %46 = load i32, ptr %45, align 4, !tbaa !49
  %47 = mul i32 %46, %44
  %48 = tail call ptr %41(ptr noundef nonnull %0, ptr noundef %43, i32 noundef %47, i32 noundef %46, i32 noundef 0) #6
  %49 = load i32, ptr %11, align 8, !tbaa !83
  %50 = icmp ult i32 %49, %7
  br i1 %50, label %51, label %53

51:                                               ; preds = %38
  %52 = load i32, ptr %45, align 4, !tbaa !49
  br label %59

53:                                               ; preds = %38
  %54 = getelementptr inbounds nuw i8, ptr %.06285, i64 32
  %55 = load i32, ptr %54, align 8, !tbaa !55
  %56 = load i32, ptr %45, align 4, !tbaa !49
  %57 = urem i32 %55, %56
  %58 = icmp eq i32 %57, 0
  %spec.select = select i1 %58, i32 %56, i32 %57
  br label %59

59:                                               ; preds = %53, %51
  %.067 = phi i32 [ %52, %51 ], [ %spec.select, %53 ]
  %60 = load ptr, ptr %33, align 8, !tbaa !111
  %61 = getelementptr inbounds nuw i8, ptr %60, i64 8
  %62 = getelementptr inbounds nuw [10 x ptr], ptr %61, i64 0, i64 %indvars.iv91
  %63 = load ptr, ptr %62, align 8, !tbaa !71
  %64 = icmp sgt i32 %.067, 0
  br i1 %64, label %.lr.ph83, label %.loopexit

.lr.ph83:                                         ; preds = %59
  %65 = getelementptr inbounds nuw i8, ptr %.06285, i64 36
  %66 = load ptr, ptr %34, align 8, !tbaa !98
  %67 = getelementptr inbounds nuw i8, ptr %66, i64 32
  %68 = getelementptr inbounds nuw [10 x i32], ptr %67, i64 0, i64 %indvars.iv91
  %69 = load i32, ptr %68, align 4, !tbaa !79
  %70 = getelementptr inbounds nuw i8, ptr %66, i64 72
  %71 = getelementptr inbounds nuw [10 x i32], ptr %70, i64 0, i64 %indvars.iv91
  %72 = load i32, ptr %71, align 4, !tbaa !79
  %73 = icmp ugt i32 %69, %72
  br i1 %73, label %.loopexit, label %.lr.ph83.split.preheader

.lr.ph83.split.preheader:                         ; preds = %.lr.ph83
  %74 = getelementptr inbounds nuw ptr, ptr %1, i64 %indvars.iv91
  %75 = load ptr, ptr %74, align 8, !tbaa !112
  %wide.trip.count = zext nneg i32 %.067 to i64
  br label %.lr.ph83.split

.lr.ph83.split:                                   ; preds = %.lr.ph83.split.preheader, %._crit_edge
  %76 = phi ptr [ %66, %.lr.ph83.split.preheader ], [ %96, %._crit_edge ]
  %indvars.iv = phi i64 [ 0, %.lr.ph83.split.preheader ], [ %indvars.iv.next, %._crit_edge ]
  %.06481 = phi ptr [ %75, %.lr.ph83.split.preheader ], [ %98, %._crit_edge ]
  %77 = getelementptr inbounds nuw i8, ptr %76, i64 32
  %78 = getelementptr inbounds nuw [10 x i32], ptr %77, i64 0, i64 %indvars.iv91
  %79 = load i32, ptr %78, align 4, !tbaa !79
  %80 = getelementptr inbounds nuw i8, ptr %76, i64 72
  %81 = getelementptr inbounds nuw [10 x i32], ptr %80, i64 0, i64 %indvars.iv91
  %82 = load i32, ptr %81, align 4, !tbaa !79
  %.not7476 = icmp ugt i32 %79, %82
  br i1 %.not7476, label %.lr.ph83.split.._crit_edge_crit_edge, label %.lr.ph.preheader

.lr.ph83.split.._crit_edge_crit_edge:             ; preds = %.lr.ph83.split
  %.pre = load i32, ptr %65, align 4, !tbaa !113
  br label %._crit_edge

.lr.ph.preheader:                                 ; preds = %.lr.ph83.split
  %83 = getelementptr inbounds nuw ptr, ptr %48, i64 %indvars.iv
  %84 = load ptr, ptr %83, align 8, !tbaa !63
  %85 = zext i32 %79 to i64
  %86 = getelementptr inbounds nuw [64 x i16], ptr %84, i64 %85
  br label %.lr.ph

.lr.ph:                                           ; preds = %.lr.ph.preheader, %.lr.ph
  %.06379 = phi i32 [ %89, %.lr.ph ], [ 0, %.lr.ph.preheader ]
  %.06578 = phi ptr [ %87, %.lr.ph ], [ %86, %.lr.ph.preheader ]
  %.06677 = phi i32 [ %90, %.lr.ph ], [ %79, %.lr.ph.preheader ]
  tail call void %63(ptr noundef nonnull %0, ptr noundef nonnull %.06285, ptr noundef %.06578, ptr noundef %.06481, i32 noundef %.06379) #6
  %87 = getelementptr inbounds nuw i8, ptr %.06578, i64 128
  %88 = load i32, ptr %65, align 4, !tbaa !113
  %89 = add i32 %88, %.06379
  %90 = add i32 %.06677, 1
  %91 = load ptr, ptr %34, align 8, !tbaa !98
  %92 = getelementptr inbounds nuw i8, ptr %91, i64 72
  %93 = getelementptr inbounds nuw [10 x i32], ptr %92, i64 0, i64 %indvars.iv91
  %94 = load i32, ptr %93, align 4, !tbaa !79
  %.not74 = icmp ugt i32 %90, %94
  br i1 %.not74, label %._crit_edge, label %.lr.ph, !llvm.loop !114

._crit_edge:                                      ; preds = %.lr.ph, %.lr.ph83.split.._crit_edge_crit_edge
  %95 = phi i32 [ %.pre, %.lr.ph83.split.._crit_edge_crit_edge ], [ %88, %.lr.ph ]
  %96 = phi ptr [ %76, %.lr.ph83.split.._crit_edge_crit_edge ], [ %91, %.lr.ph ]
  %97 = sext i32 %95 to i64
  %98 = getelementptr inbounds ptr, ptr %.06481, i64 %97
  %indvars.iv.next = add nuw nsw i64 %indvars.iv, 1
  %exitcond.not = icmp eq i64 %indvars.iv.next, %wide.trip.count
  br i1 %exitcond.not, label %.loopexit, label %.lr.ph83.split, !llvm.loop !115

.loopexit:                                        ; preds = %._crit_edge, %.lr.ph83, %59, %35
  %indvars.iv.next92 = add nuw nsw i64 %indvars.iv91, 1
  %99 = getelementptr inbounds nuw i8, ptr %.06285, i64 96
  %100 = load i32, ptr %26, align 8, !tbaa !47
  %101 = sext i32 %100 to i64
  %102 = icmp slt i64 %indvars.iv.next92, %101
  br i1 %102, label %35, label %._crit_edge88, !llvm.loop !117

._crit_edge88:                                    ; preds = %.loopexit, %.critedge2
  %103 = load i32, ptr %11, align 8, !tbaa !83
  %104 = add i32 %103, 1
  store i32 %104, ptr %11, align 8, !tbaa !83
  %105 = load i32, ptr %5, align 4, !tbaa !70
  %106 = icmp ult i32 %104, %105
  %. = select i1 %106, i32 3, i32 4
  br label %.loopexit75

.loopexit75:                                      ; preds = %.critedge, %._crit_edge88
  %.0 = phi i32 [ %., %._crit_edge88 ], [ 0, %.critedge ]
  ret i32 %.0
}